target datalayout = "e-m:e-p270:32:32-p271:32:32-p272:64:64-i64:64-i128:128-f80:128-n8:16:32:64-S128"
target triple = "x86_64-pc-linux-gnu"

%struct._zend_mm_heap = type { i32, ptr, i64, i64, [30 x ptr], i64, i64, i64, i32, ptr, ptr, ptr, i32, i32, i32, double, i32, i32, %struct.anon, ptr }
%struct.anon = type { ptr, ptr, ptr }

; Function Attrs: nounwind uwtable
define void @zend_mm_set_custom_handlers(ptr noundef %0, ptr noundef %1, ptr noundef %2, ptr noundef %3) #0 {
  %5 = alloca ptr, align 8
  %6 = alloca ptr, align 8
  %7 = alloca ptr, align 8
  %8 = alloca ptr, align 8
  %9 = alloca ptr, align 8
  store ptr %0, ptr %5, align 8
  store ptr %1, ptr %6, align 8
  store ptr %2, ptr %7, align 8
  store ptr %3, ptr %8, align 8
  %10 = load ptr, ptr %5, align 8
  store ptr %10, ptr %9, align 8
  %11 = load ptr, ptr %6, align 8
  %12 = icmp ne ptr %11, null
  br i1 %12, label %22, label %13

13:                                               ; preds = %4
  %14 = load ptr, ptr %7, align 8
  %15 = icmp ne ptr %14, null
  br i1 %15, label %22, label %16

16:                                               ; preds = %13
  %17 = load ptr, ptr %8, align 8
  %18 = icmp ne ptr %17, null
  br i1 %18, label %22, label %19

19:                                               ; preds = %16
  %20 = load ptr, ptr %9, align 8
  %21 = getelementptr inbounds %struct._zend_mm_heap, ptr %20, i32 0, i32 0
  store i32 0, ptr %21, align 8
  br label %37

22:                                               ; preds = %16, %13, %4
  %23 = load ptr, ptr %9, align 8
  %24 = getelementptr inbounds %struct._zend_mm_heap, ptr %23, i32 0, i32 0
  store i32 1, ptr %24, align 8
  %25 = load ptr, ptr %6, align 8
  %26 = load ptr, ptr %9, align 8
  %27 = getelementptr inbounds %struct._zend_mm_heap, ptr %26, i32 0, i32 18
  %28 = getelementptr inbounds %struct.anon, ptr %27, i32 0, i32 0
  store ptr %25, ptr %28, align 8
  %29 = load ptr, ptr %7, align 8
  %30 = load ptr, ptr %9, align 8
  %31 = getelementptr inbounds %struct._zend_mm_heap, ptr %30, i32 0, i32 18
  %32 = getelementptr inbounds %struct.anon, ptr %31, i32 0, i32 1
  store ptr %29, ptr %32, align 8
  %33 = load ptr, ptr %8, align 8
  %34 = load ptr, ptr %9, align 8
  %35 = getelementptr inbounds %struct._zend_mm_heap, ptr %34, i32 0, i32 18
  %36 = getelementptr inbounds %struct.anon, ptr %35, i32 0, i32 2
  store ptr %33, ptr %36, align 8
  br label %37

37:                                               ; preds = %22, %19
  ret void
}