; Function Attrs: mustprogress nofree norecurse nosync nounwind willreturn memory(argmem: write) uwtable
define void @zend_mm_set_custom_handlers(ptr nocapture noundef writeonly %0, ptr noundef %1, ptr noundef %2, ptr noundef %3) local_unnamed_addr #19 {
  %5 = icmp ne ptr %1, null
  %6 = icmp ne ptr %2, null
  %or.cond = or i1 %5, %6
  %7 = icmp ne ptr %3, null
  %or.cond3 = or i1 %or.cond, %7
  br i1 %or.cond3, label %8, label %12

8:                                                ; preds = %4
  %9 = getelementptr inbounds i8, ptr %0, i64 360
  store ptr %1, ptr %9, align 8
  %10 = getelementptr inbounds i8, ptr %0, i64 368
  store ptr %2, ptr %10, align 8
  %11 = getelementptr inbounds i8, ptr %0, i64 376
  store ptr %3, ptr %11, align 8
  br label %12

12:                                               ; preds = %4, %8
  %.sink = phi i32 [ 1, %8 ], [ 0, %4 ]
  store i32 %.sink, ptr %0, align 8
  ret void
}